; Function Attrs: mustprogress noreturn uwtable
define void @_ZN12ErrorHandler10WriteErrorEPKwS1_(ptr nocapture noundef nonnull align 4 dereferenceable(14) %0, ptr nocapture noundef readnone %1, ptr nocapture noundef readnone %2) local_unnamed_addr #1 align 2 {
  tail call void @_Z7uiAlarm12UIALARM_TYPE(i32 noundef 0)
  store i32 5, ptr %0, align 4
  %4 = getelementptr inbounds i8, ptr %0, i64 4
  %5 = load i32, ptr %4, align 4
  %6 = add i32 %5, 1
  store i32 %6, ptr %4, align 4
  %7 = tail call ptr @__cxa_allocate_exception(i64 4) #15
  store i32 5, ptr %7, align 16
  tail call void @__cxa_throw(ptr nonnull %7, ptr nonnull @_ZTI8RAR_EXIT, ptr null) #16
  unreachable
}